; Function Attrs: mustprogress uwtable
define void @_ZN15AlignPairWidget16drawPickedPointsEP8QPainterRSt6vectorIN3vcg6Point3IfEESaIS5_EENS3_6Color4IhEE(ptr nocapture nonnull readnone align 8 %0, ptr noundef %1, ptr nocapture noundef nonnull readonly align 8 dereferenceable(24) %2, i32 %3) local_unnamed_addr #9 align 2 personality ptr @__gxx_personality_v0 {
  %5 = alloca %"class.vcg::glLabel::Mode", align 8
  %6 = alloca %"class.vcg::Color4", align 4
  %7 = alloca %"class.vcg::Color4", align 1
  %8 = alloca %class.QString, align 8
  %9 = alloca %class.QString, align 8
  store i32 %3, ptr %6, align 4
  tail call void @glPushAttrib(i32 noundef 8451)
  tail call void @glDisable(i32 noundef 2896)
  tail call void @glDisable(i32 noundef 5890)
  tail call void @glDepthFunc(i32 noundef 519)
  %10 = getelementptr inbounds i8, ptr %2, i64 8
  %11 = load ptr, ptr %10, align 8
  %12 = load ptr, ptr %2, align 8
  %.not = icmp eq ptr %11, %12
  br i1 %.not, label %._crit_edge, label %.lr.ph

.lr.ph:                                           ; preds = %4
  %13 = getelementptr inbounds i8, ptr %5, i64 16
  br label %14

14:                                               ; preds = %.lr.ph, %_ZN7QStringD2Ev.exit20
  %15 = phi ptr [ %12, %.lr.ph ], [ %35, %_ZN7QStringD2Ev.exit20 ]
  %16 = phi i64 [ 0, %.lr.ph ], [ %33, %_ZN7QStringD2Ev.exit20 ]
  %.01224 = phi i32 [ 0, %.lr.ph ], [ %32, %_ZN7QStringD2Ev.exit20 ]
  %17 = getelementptr inbounds %"class.vcg::Point3", ptr %15, i64 %16
  call void @glPointSize(float noundef 5.000000e+00)
  store i32 -16777216, ptr %7, align 4
  call void @glColor4ubv(ptr noundef nonnull %7)
  call void @glBegin(i32 noundef 0)
  call void @glVertex3fv(ptr noundef nonnull %17)
  call void @glEnd()
  call void @glPointSize(float noundef 3.000000e+00)
  call void @glColor4ubv(ptr noundef nonnull %6)
  call void @glBegin(i32 noundef 0)
  call void @glVertex3fv(ptr noundef nonnull %17)
  call void @glEnd()
  %18 = call noundef ptr @_ZN7QString16fromAscii_helperEPKci(ptr noundef nonnull @.str.9, i32 noundef 2)
  store ptr %18, ptr %9, align 8
  invoke void @_ZNK7QString3argEyii5QChar(ptr dead_on_unwind nonnull writable sret(%class.QString) align 8 %8, ptr noundef nonnull align 8 dereferenceable(8) %9, i64 noundef %16, i32 noundef 0, i32 noundef 10, i16 32)
          to label %_ZNK7QString3argEjii5QChar.exit unwind label %41

_ZNK7QString3argEjii5QChar.exit:                  ; preds = %14
  call void @llvm.lifetime.start.p0(i64 32, ptr nonnull %5)
  invoke void @_ZN5QFontC1Ev(ptr noundef nonnull align 8 dereferenceable(12) %13)
          to label %.noexc unwind label %43

.noexc:                                           ; preds = %_ZNK7QString3argEjii5QChar.exit
  invoke void @_ZN3vcg7glLabel4Mode4initEv(ptr noundef nonnull align 8 dereferenceable(32) %5)
          to label %_ZN3vcg7glLabel4ModeC2Ev.exit.i unwind label %19

common.resume.i:                                  ; preds = %21, %19
  %common.resume.op.i = phi { ptr, i32 } [ %20, %19 ], [ %22, %21 ]
  call void @_ZN5QFontD1Ev(ptr noundef nonnull align 8 dereferenceable(12) %13) #19
  br label %.body

19:                                               ; preds = %.noexc
  %20 = landingpad { ptr, i32 }
          cleanup
  br label %common.resume.i

_ZN3vcg7glLabel4ModeC2Ev.exit.i:                  ; preds = %.noexc
  invoke void @_ZN3vcg7glLabel6renderEP8QPainterRKNS_6Point3IfEERK7QStringRKNS0_4ModeE(ptr noundef %1, ptr noundef nonnull align 4 dereferenceable(12) %17, ptr noundef nonnull align 8 dereferenceable(8) %8, ptr noundef nonnull align 8 dereferenceable(32) %5)
          to label %23 unwind label %21

21:                                               ; preds = %_ZN3vcg7glLabel4ModeC2Ev.exit.i
  %22 = landingpad { ptr, i32 }
          cleanup
  br label %common.resume.i

23:                                               ; preds = %_ZN3vcg7glLabel4ModeC2Ev.exit.i
  call void @_ZN5QFontD1Ev(ptr noundef nonnull align 8 dereferenceable(12) %13) #19
  call void @llvm.lifetime.end.p0(i64 32, ptr nonnull %5)
  %24 = load ptr, ptr %8, align 8
  %25 = load atomic i32, ptr %24 monotonic, align 4
  switch i32 %25, label %_ZN9QtPrivate8RefCount5derefEv.exit.i [
    i32 0, label %_ZN9QtPrivate8RefCount5derefEv.exit.thread2.i
    i32 -1, label %_ZN7QStringD2Ev.exit
  ]

_ZN9QtPrivate8RefCount5derefEv.exit.i:            ; preds = %23
  %26 = atomicrmw sub ptr %24, i32 1 seq_cst, align 4
  %.not.i = icmp eq i32 %26, 1
  br i1 %.not.i, label %_ZN9QtPrivate8RefCount5derefEv.exit._ZN9QtPrivate8RefCount5derefEv.exit.thread2_crit_edge.i, label %_ZN7QStringD2Ev.exit

_ZN9QtPrivate8RefCount5derefEv.exit._ZN9QtPrivate8RefCount5derefEv.exit.thread2_crit_edge.i: ; preds = %_ZN9QtPrivate8RefCount5derefEv.exit.i
  %.pre.i = load ptr, ptr %8, align 8
  br label %_ZN9QtPrivate8RefCount5derefEv.exit.thread2.i

_ZN9QtPrivate8RefCount5derefEv.exit.thread2.i:    ; preds = %_ZN9QtPrivate8RefCount5derefEv.exit._ZN9QtPrivate8RefCount5derefEv.exit.thread2_crit_edge.i, %23
  %27 = phi ptr [ %.pre.i, %_ZN9QtPrivate8RefCount5derefEv.exit._ZN9QtPrivate8RefCount5derefEv.exit.thread2_crit_edge.i ], [ %24, %23 ]
  call void @_ZN10QArrayData10deallocateEPS_mm(ptr noundef %27, i64 noundef 2, i64 noundef 8) #19
  br label %_ZN7QStringD2Ev.exit

_ZN7QStringD2Ev.exit:                             ; preds = %23, %_ZN9QtPrivate8RefCount5derefEv.exit.i, %_ZN9QtPrivate8RefCount5derefEv.exit.thread2.i
  %28 = load ptr, ptr %9, align 8
  %29 = load atomic i32, ptr %28 monotonic, align 4
  switch i32 %29, label %_ZN9QtPrivate8RefCount5derefEv.exit.i16 [
    i32 0, label %_ZN9QtPrivate8RefCount5derefEv.exit.thread2.i15
    i32 -1, label %_ZN7QStringD2Ev.exit20
  ]

_ZN9QtPrivate8RefCount5derefEv.exit.i16:          ; preds = %_ZN7QStringD2Ev.exit
  %30 = atomicrmw sub ptr %28, i32 1 seq_cst, align 4
  %.not.i17 = icmp eq i32 %30, 1
  br i1 %.not.i17, label %_ZN9QtPrivate8RefCount5derefEv.exit._ZN9QtPrivate8RefCount5derefEv.exit.thread2_crit_edge.i18, label %_ZN7QStringD2Ev.exit20

_ZN9QtPrivate8RefCount5derefEv.exit._ZN9QtPrivate8RefCount5derefEv.exit.thread2_crit_edge.i18: ; preds = %_ZN9QtPrivate8RefCount5derefEv.exit.i16
  %.pre.i19 = load ptr, ptr %9, align 8
  br label %_ZN9QtPrivate8RefCount5derefEv.exit.thread2.i15

_ZN9QtPrivate8RefCount5derefEv.exit.thread2.i15:  ; preds = %_ZN9QtPrivate8RefCount5derefEv.exit._ZN9QtPrivate8RefCount5derefEv.exit.thread2_crit_edge.i18, %_ZN7QStringD2Ev.exit
  %31 = phi ptr [ %.pre.i19, %_ZN9QtPrivate8RefCount5derefEv.exit._ZN9QtPrivate8RefCount5derefEv.exit.thread2_crit_edge.i18 ], [ %28, %_ZN7QStringD2Ev.exit ]
  call void @_ZN10QArrayData10deallocateEPS_mm(ptr noundef %31, i64 noundef 2, i64 noundef 8) #19
  br label %_ZN7QStringD2Ev.exit20

_ZN7QStringD2Ev.exit20:                           ; preds = %_ZN7QStringD2Ev.exit, %_ZN9QtPrivate8RefCount5derefEv.exit.i16, %_ZN9QtPrivate8RefCount5derefEv.exit.thread2.i15
  %32 = add i32 %.01224, 1
  %33 = zext i32 %32 to i64
  %34 = load ptr, ptr %10, align 8
  %35 = load ptr, ptr %2, align 8
  %36 = ptrtoint ptr %34 to i64
  %37 = ptrtoint ptr %35 to i64
  %38 = sub i64 %36, %37
  %39 = sdiv exact i64 %38, 12
  %40 = icmp ugt i64 %39, %33
  br i1 %40, label %14, label %._crit_edge, !llvm.loop !25

41:                                               ; preds = %14
  %42 = landingpad { ptr, i32 }
          cleanup
  br label %45

43:                                               ; preds = %_ZNK7QString3argEjii5QChar.exit
  %44 = landingpad { ptr, i32 }
          cleanup
  br label %.body

.body:                                            ; preds = %common.resume.i, %43
  %eh.lpad-body = phi { ptr, i32 } [ %44, %43 ], [ %common.resume.op.i, %common.resume.i ]
  call void @_ZN7QStringD2Ev(ptr noundef nonnull align 8 dereferenceable(8) %8) #19
  br label %45

45:                                               ; preds = %.body, %41
  %.pn = phi { ptr, i32 } [ %eh.lpad-body, %.body ], [ %42, %41 ]
  call void @_ZN7QStringD2Ev(ptr noundef nonnull align 8 dereferenceable(8) %9) #19
  resume { ptr, i32 } %.pn

._crit_edge:                                      ; preds = %_ZN7QStringD2Ev.exit20, %4
  call void @glPopAttrib()
  ret void
}